# SymbolsHelper-Confirmed: 4:17.08.3 amd64
libKF5CddbWidgets.so.5 libkf5cddbwidgets5 #MINVER#
* Build-Depends-Package: libkf5cddb-dev
 _ZN5KCDDB12CDInfoDialog10framesTimeEj@Base 4:17.08.3
 _ZN5KCDDB12CDInfoDialog11qt_metacallEN11QMetaObject4CallEiPPv@Base 4:17.08.3
 _ZN5KCDDB12CDInfoDialog11qt_metacastEPKc@Base 4:17.08.3
 _ZN5KCDDB12CDInfoDialog12genreChangedERK7QString@Base 4:17.08.3
 _ZN5KCDDB12CDInfoDialog13artistChangedERK7QString@Base 4:17.08.3
 _ZN5KCDDB12CDInfoDialog13slotNextTrackEv@Base 4:17.08.3
 _ZN5KCDDB12CDInfoDialog16staticMetaObjectE@Base 4:17.08.3
 _ZN5KCDDB12CDInfoDialog17slotTrackSelectedERK11QModelIndex@Base 4:17.08.3
 _ZN5KCDDB12CDInfoDialog18slotChangeEncodingEv@Base 4:17.08.3
 _ZN5KCDDB12CDInfoDialog19slotMultipleArtistsEb@Base 4:17.08.3
 _ZN5KCDDB12CDInfoDialog22slotTrackDoubleClickedERK11QModelIndex@Base 4:17.08.3
 _ZN5KCDDB12CDInfoDialog4playEi@Base 4:17.08.3
 _ZN5KCDDB12CDInfoDialog7Private9SEPARATORE@Base 4:17.08.3
 _ZN5KCDDB12CDInfoDialog7setInfoERKNS_6CDInfoERK5QListIjE@Base 4:17.08.3
 _ZN5KCDDB12CDInfoDialogC1EP7QWidget@Base 4:17.08.3
 _ZN5KCDDB12CDInfoDialogC2EP7QWidget@Base 4:17.08.3
 _ZN5KCDDB12CDInfoDialogD0Ev@Base 4:17.08.3
 _ZN5KCDDB12CDInfoDialogD1Ev@Base 4:17.08.3
 _ZN5KCDDB12CDInfoDialogD2Ev@Base 4:17.08.3
 _ZNK5KCDDB12CDInfoDialog10metaObjectEv@Base 4:17.08.3
 _ZNK5KCDDB12CDInfoDialog4infoEv@Base 4:17.08.3
 _ZTIN5KCDDB12CDInfoDialogE@Base 4:17.08.3
 _ZTSN5KCDDB12CDInfoDialogE@Base 4:17.08.3
 _ZTVN5KCDDB12CDInfoDialogE@Base 4:17.08.3
 _ZThn16_N5KCDDB12CDInfoDialogD0Ev@Base 4:17.08.3
 _ZThn16_N5KCDDB12CDInfoDialogD1Ev@Base 4:17.08.3
