# SymbolsHelper-Confirmed: 4:16.08.0 alpha amd64 arm64 armel hppa i386 mips powerpc ppc64el s390x x32
libkcddb.so.4 libkcddb4 #MINVER#
 _ZN10ConfigBase10setReplyToERK7QString@Base 4:4.3.4
 _ZN10ConfigBase11setHostnameERK7QString@Base 4:4.3.4
 _ZN10ConfigBase11setSmtpPortEi@Base 4:4.3.4
 _ZN10ConfigBase15setEmailAddressERK7QString@Base 4:4.3.4
 _ZN10ConfigBase15setSmtpHostnameERK7QString@Base 4:4.3.4
 _ZN10ConfigBase15setSmtpUsernameERK7QString@Base 4:4.3.4
 _ZN10ConfigBase16setSubmitAddressERK7QString@Base 4:4.3.4
 _ZN10ConfigBase17setCacheLocationsERK11QStringList@Base 4:4.3.4
 _ZN10ConfigBase17setHttpSubmitPortEi@Base 4:4.3.4
 _ZN10ConfigBase17setUseGlobalEmailEb@Base 4:4.3.4
 _ZN10ConfigBase19setHttpSubmitServerERK7QString@Base 4:4.3.4
 _ZN10ConfigBase21setCacheLookupEnabledEb@Base 4:4.3.4
 _ZN10ConfigBase22setFreedbLookupEnabledEb@Base 4:4.3.4
 _ZN10ConfigBase24setFreedbLookupTransportEi@Base 4:4.3.4
 _ZN10ConfigBase24setFreedbSubmitTransportEi@Base 4:4.3.4
 _ZN10ConfigBase27setMusicBrainzLookupEnabledEb@Base 4:4.3.4
 _ZN10ConfigBase7setPortEi@Base 4:4.3.4
 _ZN10ConfigBaseC1Ev@Base 4:4.3.4
 _ZN10ConfigBaseC2Ev@Base 4:4.3.4
 _ZN10ConfigBaseD0Ev@Base 4:4.3.4
 _ZN10ConfigBaseD1Ev@Base 4:4.3.4
 _ZN10ConfigBaseD2Ev@Base 4:4.3.4
 (optional=gccinternal|arch=!alpha !amd64 !arm64 !armel !hppa !i386 !mips !powerpc !ppc64el !s390x !x32)_ZN19KCoreConfigSkeleton8ItemEnum7Choice2D1Ev@Base 4:4.8.90
 (optional=gccinternal|arch=!alpha !amd64 !arm64 !armel !hppa !i386 !mips !powerpc !ppc64el !s390x !x32)_ZN19KCoreConfigSkeleton8ItemEnum7Choice2D2Ev@Base 4:4.8.90
 _ZN5KCDDB12CDInfoDialog10framesTimeEj@Base 4:4.3.4
 _ZN5KCDDB12CDInfoDialog11qt_metacallEN11QMetaObject4CallEiPPv@Base 4:4.3.4
 _ZN5KCDDB12CDInfoDialog11qt_metacastEPKc@Base 4:4.3.4
 _ZN5KCDDB12CDInfoDialog12genreChangedERK7QString@Base 4:4.3.4
 _ZN5KCDDB12CDInfoDialog13artistChangedERK7QString@Base 4:4.3.4
 _ZN5KCDDB12CDInfoDialog13slotNextTrackEv@Base 4:4.3.4
 _ZN5KCDDB12CDInfoDialog16staticMetaObjectE@Base 4:4.3.4
 _ZN5KCDDB12CDInfoDialog17slotTrackSelectedERK11QModelIndex@Base 4:4.5.1
 _ZN5KCDDB12CDInfoDialog18slotChangeEncodingEv@Base 4:4.3.4
 _ZN5KCDDB12CDInfoDialog19slotMultipleArtistsEb@Base 4:4.3.4
 _ZN5KCDDB12CDInfoDialog22slotTrackDoubleClickedERK11QModelIndex@Base 4:4.5.1
 _ZN5KCDDB12CDInfoDialog4playEi@Base 4:4.3.4
 _ZN5KCDDB12CDInfoDialog7Private9SEPARATORE@Base 4:4.3.4
 _ZN5KCDDB12CDInfoDialog7setInfoERKNS_6CDInfoERK5QListIjE@Base 4:4.3.4
 _ZN5KCDDB12CDInfoDialogC1EP7QWidget@Base 4:4.3.4
 _ZN5KCDDB12CDInfoDialogC2EP7QWidget@Base 4:4.3.4
 _ZN5KCDDB12CDInfoDialogD0Ev@Base 4:4.3.4
 _ZN5KCDDB12CDInfoDialogD1Ev@Base 4:4.3.4
 _ZN5KCDDB12CDInfoDialogD2Ev@Base 4:4.3.4
 _ZN5KCDDB14resultToStringENS_6ResultE@Base 4:4.3.4
 _ZN5KCDDB5Cache5storeERK5QListIjERKNS_6CDInfoERKNS_6ConfigE@Base 4:4.3.4
 _ZN5KCDDB5Cache5storeERK5QListIjERKS1_INS_6CDInfoEERKNS_6ConfigE@Base 4:4.3.4
 _ZN5KCDDB5Cache6lookupERK5QListIjERKNS_6ConfigE@Base 4:4.3.4
 _ZN5KCDDB5Sites8readDataERK10QByteArray@Base 4:4.3.4
 _ZN5KCDDB5Sites8siteListEv@Base 4:4.3.4
 _ZN5KCDDB5Sites9parseLineERK7QString@Base 4:4.3.4
 _ZN5KCDDB5SitesC1Ev@Base 4:4.3.4
 _ZN5KCDDB5SitesC2Ev@Base 4:4.3.4
 _ZN5KCDDB6CDInfo10checkTrackEi@Base 4:4.3.4
 _ZN5KCDDB6CDInfo3setENS_4TypeERK8QVariant@Base 4:4.3.4
 _ZN5KCDDB6CDInfo3setERK7QStringRK8QVariant@Base 4:4.3.4
 _ZN5KCDDB6CDInfo4loadERK11QStringList@Base 4:4.3.4
 _ZN5KCDDB6CDInfo4loadERK7QString@Base 4:4.3.4
 _ZN5KCDDB6CDInfo5clearEv@Base 4:4.3.4
 _ZN5KCDDB6CDInfo5trackEi@Base 4:4.3.4
 _ZN5KCDDB6CDInfoC1ERKS0_@Base 4:4.3.4
 _ZN5KCDDB6CDInfoC1Ev@Base 4:4.3.4
 _ZN5KCDDB6CDInfoC2ERKS0_@Base 4:4.3.4
 _ZN5KCDDB6CDInfoC2Ev@Base 4:4.3.4
 _ZN5KCDDB6CDInfoD0Ev@Base 4:4.3.4
 _ZN5KCDDB6CDInfoD1Ev@Base 4:4.3.4
 _ZN5KCDDB6CDInfoD2Ev@Base 4:4.3.4
 _ZN5KCDDB6CDInfoaSERKS0_@Base 4:4.3.4
 _ZN5KCDDB6Client11qt_metacallEN11QMetaObject4CallEiPPv@Base 4:4.3.4
 _ZN5KCDDB6Client11qt_metacastEPKc@Base 4:4.3.4
 _ZN5KCDDB6Client12slotFinishedENS_6ResultE@Base 4:4.3.4
 _ZN5KCDDB6Client15setBlockingModeEb@Base 4:4.3.4
 _ZN5KCDDB6Client16staticMetaObjectE@Base 4:4.3.4
 _ZN5KCDDB6Client17runPendingLookupsEv@Base 4:4.3.4
 _ZN5KCDDB6Client18slotSubmitFinishedENS_6ResultE@Base 4:4.3.4
 _ZN5KCDDB6Client5storeERKNS_6CDInfoERK5QListIjE@Base 4:4.3.4
 _ZN5KCDDB6Client6lookupERK5QListIjE@Base 4:4.3.4
 _ZN5KCDDB6Client6submitERKNS_6CDInfoERK5QListIjE@Base 4:4.3.4
 _ZN5KCDDB6Client8finishedENS_6ResultE@Base 4:4.3.4
 _ZN5KCDDB6ClientC1Ev@Base 4:4.3.4
 _ZN5KCDDB6ClientC2Ev@Base 4:4.3.4
 _ZN5KCDDB6ClientD0Ev@Base 4:4.3.4
 _ZN5KCDDB6ClientD1Ev@Base 4:4.3.4
 _ZN5KCDDB6ClientD2Ev@Base 4:4.3.4
 _ZN5KCDDB6Config17loadEmailSettingsEv@Base 4:4.3.4
 _ZN5KCDDB6Config7reparseEv@Base 4:4.3.4
 _ZN5KCDDB6ConfigC1Ev@Base 4:4.3.4
 _ZN5KCDDB6ConfigC2Ev@Base 4:4.3.4
 (optional=gccinternal|arch=!alpha !amd64 !arm64 !armel !hppa !i386 !mips !powerpc !ppc64el !s390x !x32)_ZN5KCDDB6ConfigD0Ev@Base 4:4.6.5
 (optional=gccinternal|arch=!alpha !amd64 !arm64 !armel !hppa !i386 !mips !powerpc !ppc64el !s390x !x32)_ZN5KCDDB6ConfigD1Ev@Base 4:4.6.5
 (optional=gccinternal|arch=!alpha !amd64 !arm64 !armel !hppa !i386 !mips !powerpc !ppc64el !s390x !x32)_ZN5KCDDB6ConfigD2Ev@Base 4:4.6.5
 _ZN5KCDDB6GenresC1ERKS0_@Base 4:4.3.4
 _ZN5KCDDB6GenresC1Ev@Base 4:4.3.4
 _ZN5KCDDB6GenresC2ERKS0_@Base 4:4.3.4
 _ZN5KCDDB6GenresC2Ev@Base 4:4.3.4
 _ZN5KCDDB6GenresD1Ev@Base 4:4.3.4
 _ZN5KCDDB6GenresD2Ev@Base 4:4.3.4
 _ZN5KCDDB6GenresaSERKS0_@Base 4:4.3.4
 _ZN5KCDDB9TrackInfo3setENS_4TypeERK8QVariant@Base 4:4.3.4
 _ZN5KCDDB9TrackInfo3setERK7QStringRK8QVariant@Base 4:4.3.4
 _ZN5KCDDB9TrackInfo5clearEv@Base 4:4.3.4
 _ZN5KCDDB9TrackInfoC1ERKS0_@Base 4:4.3.4
 _ZN5KCDDB9TrackInfoC1Ev@Base 4:4.3.4
 _ZN5KCDDB9TrackInfoC2ERKS0_@Base 4:4.3.4
 _ZN5KCDDB9TrackInfoC2Ev@Base 4:4.3.4
 _ZN5KCDDB9TrackInfoD0Ev@Base 4:4.3.4
 _ZN5KCDDB9TrackInfoD1Ev@Base 4:4.3.4
 _ZN5KCDDB9TrackInfoD2Ev@Base 4:4.3.4
 _ZN5KCDDB9TrackInfoaSERKS0_@Base 4:4.3.4
 _ZNK10ConfigBase12emailAddressEv@Base 4:4.3.4
 _ZNK10ConfigBase12smtpHostnameEv@Base 4:4.3.4
 _ZNK10ConfigBase12smtpUsernameEv@Base 4:4.3.4
 _ZNK10ConfigBase13submitAddressEv@Base 4:4.3.4
 _ZNK10ConfigBase14cacheLocationsEv@Base 4:4.3.4
 _ZNK10ConfigBase14httpSubmitPortEv@Base 4:4.3.4
 _ZNK10ConfigBase14useGlobalEmailEv@Base 4:4.3.4
 _ZNK10ConfigBase16httpSubmitServerEv@Base 4:4.3.4
 _ZNK10ConfigBase18cacheLookupEnabledEv@Base 4:4.3.4
 _ZNK10ConfigBase19freedbLookupEnabledEv@Base 4:4.3.4
 _ZNK10ConfigBase21freedbLookupTransportEv@Base 4:4.3.4
 _ZNK10ConfigBase21freedbSubmitTransportEv@Base 4:4.3.4
 _ZNK10ConfigBase24musicBrainzLookupEnabledEv@Base 4:4.3.4
 _ZNK10ConfigBase4portEv@Base 4:4.3.4
 _ZNK10ConfigBase7replyToEv@Base 4:4.3.4
 _ZNK10ConfigBase8hostnameEv@Base 4:4.3.4
 _ZNK10ConfigBase8smtpPortEv@Base 4:4.3.4
 _ZNK5KCDDB12CDInfoDialog10metaObjectEv@Base 4:4.3.4
 _ZNK5KCDDB12CDInfoDialog4infoEv@Base 4:4.3.4
 _ZNK5KCDDB6CDInfo14numberOfTracksEv@Base 4:4.3.4
 _ZNK5KCDDB6CDInfo3getENS_4TypeE@Base 4:4.3.4
 _ZNK5KCDDB6CDInfo3getERK7QString@Base 4:4.3.4
 _ZNK5KCDDB6CDInfo5trackEi@Base 4:4.3.4
 _ZNK5KCDDB6CDInfo7isValidEv@Base 4:4.3.4
 _ZNK5KCDDB6CDInfo8toStringEb@Base 4:4.3.4
 _ZNK5KCDDB6CDInfoeqERKS0_@Base 4:4.3.4
 _ZNK5KCDDB6CDInfoneERKS0_@Base 4:4.3.4
 _ZNK5KCDDB6Client10metaObjectEv@Base 4:4.3.4
 _ZNK5KCDDB6Client12blockingModeEv@Base 4:4.3.4
 _ZNK5KCDDB6Client14lookupResponseEv@Base 4:4.3.4
 _ZNK5KCDDB6Client6configEv@Base 4:4.3.4
 _ZNK5KCDDB6Genres8cddbListEv@Base 4:4.3.4
 _ZNK5KCDDB6Genres8i18nListEv@Base 4:4.3.4
 _ZNK5KCDDB6Genres9cddb2i18nERK7QString@Base 4:4.3.4
 _ZNK5KCDDB6Genres9i18n2cddbERK7QString@Base 4:4.3.4
 _ZNK5KCDDB9TrackInfo3getENS_4TypeE@Base 4:4.3.4
 _ZNK5KCDDB9TrackInfo3getERK7QString@Base 4:4.3.4
 _ZNK5KCDDB9TrackInfo8toStringEv@Base 4:4.3.4
 _ZNK5KCDDB9TrackInfoeqERKS0_@Base 4:4.3.4
 _ZNK5KCDDB9TrackInfoneERKS0_@Base 4:4.3.4
 (optional=templinst|arch=!alpha !amd64 !arm64 !armel !hppa !i386 !mips !powerpc !ppc64el !s390x !x32)_ZNSt4pairIKSsSsED1Ev@Base 4:4.8.90
 (optional=templinst|arch=!alpha !amd64 !arm64 !armel !hppa !i386 !mips !powerpc !ppc64el !s390x !x32)_ZNSt4pairIKSsSsED2Ev@Base 4:4.8.90
 (optional=templinst)_ZNSt8_Rb_treeINSt7__cxx1112basic_stringIcSt11char_traitsIcESaIcEEESt4pairIKS5_S5_ESt10_Select1stIS8_ESt4lessIS5_ESaIS8_EE24_M_get_insert_unique_posERS7_@Base 4:15.04.1
 (optional=templinst|arch=amd64 arm64 hppa ppc64el x32)_ZNSt8_Rb_treeINSt7__cxx1112basic_stringIcSt11char_traitsIcESaIcEEESt4pairIKS5_S5_ESt10_Select1stIS8_ESt4lessIS5_ESaIS8_EE29_M_get_insert_hint_unique_posESt23_Rb_tree_const_iteratorIS8_ERS7_@Base 4:15.04.1
 (optional=templinst|arch=!alpha !amd64 !arm64 !armel !hppa !i386 !mips !powerpc !ppc64el !s390x !x32)_ZNSt8_Rb_treeINSt7__cxx1112basic_stringIcSt11char_traitsIcESaIcEEESt4pairIKS5_S5_ESt10_Select1stIS8_ESt4lessIS5_ESaIS8_EE8_M_eraseEPSt13_Rb_tree_nodeIS8_E@Base 4:15.04.1
 (optional=templinst|arch=!alpha !amd64 !arm64 !armel !hppa !i386 !mips !powerpc !ppc64el !s390x !x32)_ZNSt8_Rb_treeISsSt4pairIKSsSsESt10_Select1stIS2_ESt4lessISsESaIS2_EE10_M_insert_EPSt18_Rb_tree_node_baseSA_RKS2_@Base 4:4.10.90
 (optional=templinst|arch=!alpha !amd64 !arm64 !armel !hppa !i386 !mips !powerpc !ppc64el !s390x !x32|arch=alpha armel armhf hurd-i386 i386 kfreebsd-i386 mips mipsel powerpc ppc64 s390x sparc)_ZNSt8_Rb_treeISsSt4pairIKSsSsESt10_Select1stIS2_ESt4lessISsESaIS2_EE17_M_insert_unique_ESt23_Rb_tree_const_iteratorIS2_ERKS2_@Base 4:4.10.90
 (optional=templinst|arch=!alpha !amd64 !arm64 !armel !hppa !i386 !mips !powerpc !ppc64el !s390x !x32)_ZNSt8_Rb_treeISsSt4pairIKSsSsESt10_Select1stIS2_ESt4lessISsESaIS2_EE24_M_get_insert_unique_posERS1_@Base 4:4.10.3
 (optional=templinst|arch=!alpha !amd64 !arm64 !armel !hppa !i386 !mips !powerpc !ppc64el !s390x !x32|arch=amd64 arm64 hppa kfreebsd-amd64 ppc64el x32)_ZNSt8_Rb_treeISsSt4pairIKSsSsESt10_Select1stIS2_ESt4lessISsESaIS2_EE29_M_get_insert_hint_unique_posESt23_Rb_tree_const_iteratorIS2_ERS1_@Base 4:4.10.90
 (optional=templinst|arch=!alpha !amd64 !arm64 !armel !hppa !i386 !mips !powerpc !ppc64el !s390x !x32)_ZNSt8_Rb_treeISsSt4pairIKSsSsESt10_Select1stIS2_ESt4lessISsESaIS2_EE8_M_eraseEPSt13_Rb_tree_nodeIS2_E@Base 4:4.8.90
 _ZTI10ConfigBase@Base 4:4.3.4
 _ZTIN5KCDDB12CDInfoDialogE@Base 4:4.3.4
 _ZTIN5KCDDB6CDInfoE@Base 4:4.3.4
 _ZTIN5KCDDB6ClientE@Base 4:4.3.4
 _ZTIN5KCDDB6ConfigE@Base 4:4.3.4
 _ZTIN5KCDDB9TrackInfoE@Base 4:4.3.4
 _ZTS10ConfigBase@Base 4:4.3.4
 _ZTSN5KCDDB12CDInfoDialogE@Base 4:4.3.4
 _ZTSN5KCDDB6CDInfoE@Base 4:4.3.4
 _ZTSN5KCDDB6ClientE@Base 4:4.3.4
 _ZTSN5KCDDB6ConfigE@Base 4:4.3.4
 _ZTSN5KCDDB9TrackInfoE@Base 4:4.3.4
 _ZTV10ConfigBase@Base 4:4.3.4
 _ZTVN5KCDDB12CDInfoDialogE@Base 4:4.3.4
 _ZTVN5KCDDB6CDInfoE@Base 4:4.3.4
 _ZTVN5KCDDB6ClientE@Base 4:4.3.4
 _ZTVN5KCDDB6ConfigE@Base 4:4.3.4
 _ZTVN5KCDDB9TrackInfoE@Base 4:4.3.4
 (c++)"non-virtual thunk to KCDDB::CDInfoDialog::~CDInfoDialog()@Base" 4:4.3.4
